; Function Attrs: mustprogress uwtable
define void @_ZNK6casadi6Newton8set_workEPvRPPKdRPPdRPxRS6_(ptr noundef nonnull align 8 dereferenceable(1641) %0, ptr noundef %1, ptr noundef nonnull align 8 dereferenceable(8) %2, ptr noundef nonnull align 8 dereferenceable(8) %3, ptr noundef nonnull align 8 dereferenceable(8) %4, ptr noundef nonnull align 8 dereferenceable(8) %5) unnamed_addr #4 align 2 {
  tail call void @_ZNK6casadi10Rootfinder8set_workEPvRPPKdRPPdRPxRS6_(ptr noundef nonnull align 8 dereferenceable(1600) %0, ptr noundef %1, ptr noundef nonnull align 8 dereferenceable(8) %2, ptr noundef nonnull align 8 dereferenceable(8) %3, ptr noundef nonnull align 8 dereferenceable(8) %4, ptr noundef nonnull align 8 dereferenceable(8) %5)
  %7 = load ptr, ptr %5, align 8, !tbaa !134
  %8 = getelementptr inbounds nuw i8, ptr %1, i64 176
  store ptr %7, ptr %8, align 8, !tbaa !136
  %9 = getelementptr inbounds nuw i8, ptr %0, i64 1536
  %10 = load i64, ptr %9, align 8, !tbaa !132
  %11 = getelementptr inbounds double, ptr %7, i64 %10
  store ptr %11, ptr %5, align 8, !tbaa !134
  %12 = getelementptr inbounds nuw i8, ptr %1, i64 184
  store ptr %11, ptr %12, align 8, !tbaa !154
  %13 = load ptr, ptr %5, align 8, !tbaa !134
  %14 = getelementptr inbounds double, ptr %13, i64 %10
  store ptr %14, ptr %5, align 8, !tbaa !134
  %15 = getelementptr inbounds nuw i8, ptr %1, i64 192
  store ptr %14, ptr %15, align 8, !tbaa !155
  %16 = load ptr, ptr %5, align 8, !tbaa !134
  %17 = getelementptr inbounds double, ptr %16, i64 %10
  store ptr %17, ptr %5, align 8, !tbaa !134
  %18 = getelementptr inbounds nuw i8, ptr %1, i64 200
  store ptr %17, ptr %18, align 8, !tbaa !156
  %19 = load ptr, ptr %5, align 8, !tbaa !134
  %20 = getelementptr inbounds double, ptr %19, i64 %10
  store ptr %20, ptr %5, align 8, !tbaa !134
  %21 = getelementptr inbounds nuw i8, ptr %1, i64 208
  store ptr %20, ptr %21, align 8, !tbaa !157
  %22 = getelementptr inbounds nuw i8, ptr %0, i64 1552
  %23 = tail call noundef i64 @_ZNK6casadi8Sparsity3nnzEv(ptr noundef nonnull align 8 dereferenceable(8) %22)
  %24 = load ptr, ptr %5, align 8, !tbaa !134
  %25 = getelementptr inbounds double, ptr %24, i64 %23
  store ptr %25, ptr %5, align 8, !tbaa !134
  ret void
}